target datalayout = "e-m:e-p270:32:32-p271:32:32-p272:64:64-i64:64-i128:128-f80:128-n8:16:32:64-S128"
target triple = "x86_64-pc-linux-gnu"

%struct.uv_handle_s = type { ptr, ptr, i32, ptr, %struct.uv__queue, %union.anon.0, ptr, i32 }
%struct.uv__queue = type { ptr, ptr }
%union.anon.0 = type { [4 x ptr] }
%struct.uv__io_s = type { ptr, %struct.uv__queue, %struct.uv__queue, i32, i32, i32 }
%struct.uv_stream_s = type { ptr, ptr, i32, ptr, %struct.uv__queue, %union.anon, ptr, i32, i64, ptr, ptr, ptr, ptr, %struct.uv__io_s, %struct.uv__queue, %struct.uv__queue, ptr, i32, i32, ptr }
%union.anon = type { [4 x ptr] }
%struct.uv_pipe_s = type { ptr, ptr, i32, ptr, %struct.uv__queue, %union.anon.5, ptr, i32, i64, ptr, ptr, ptr, ptr, %struct.uv__io_s, %struct.uv__queue, %struct.uv__queue, ptr, i32, i32, ptr, i32, ptr }
%union.anon.5 = type { [4 x ptr] }
%struct.uv_udp_s = type { ptr, ptr, i32, ptr, %struct.uv__queue, %union.anon.6, ptr, i32, i64, i64, ptr, ptr, %struct.uv__io_s, %struct.uv__queue, %struct.uv__queue }
%union.anon.6 = type { [4 x ptr] }

; Function Attrs: nounwind uwtable
define internal i32 @uv__handle_fd(ptr noundef %0) #0 {
  %2 = alloca i32, align 4
  %3 = alloca ptr, align 8
  store ptr %0, ptr %3, align 8
  %4 = load ptr, ptr %3, align 8
  %5 = getelementptr inbounds nuw %struct.uv_handle_s, ptr %4, i32 0, i32 2
  %6 = load i32, ptr %5, align 8
  switch i32 %6, label %17 [
    i32 7, label %7
    i32 12, label %7
    i32 15, label %12
  ]

7:                                                ; preds = %1, %1
  %8 = load ptr, ptr %3, align 8
  %9 = getelementptr inbounds nuw %struct.uv_stream_s, ptr %8, i32 0, i32 13
  %10 = getelementptr inbounds nuw %struct.uv__io_s, ptr %9, i32 0, i32 5
  %11 = load i32, ptr %10, align 8
  store i32 %11, ptr %2, align 4
  br label %18

12:                                               ; preds = %1
  %13 = load ptr, ptr %3, align 8
  %14 = getelementptr inbounds nuw %struct.uv_udp_s, ptr %13, i32 0, i32 12
  %15 = getelementptr inbounds nuw %struct.uv__io_s, ptr %14, i32 0, i32 5
  %16 = load i32, ptr %15, align 8
  store i32 %16, ptr %2, align 4
  br label %18

17:                                               ; preds = %1
  store i32 -1, ptr %2, align 4
  br label %18

18:                                               ; preds = %17, %12, %7
  %19 = load i32, ptr %2, align 4
  ret i32 %19
}

; Function Attrs: nounwind uwtable
define internal i32 @uv__check_before_write(ptr noundef %0, i32 noundef %1, ptr noundef %2) #0 {
  %4 = alloca i32, align 4
  %5 = alloca ptr, align 8
  %6 = alloca i32, align 4
  %7 = alloca ptr, align 8
  store ptr %0, ptr %5, align 8
  store i32 %1, ptr %6, align 4
  store ptr %2, ptr %7, align 8
  %8 = load ptr, ptr %5, align 8
  %9 = getelementptr inbounds nuw %struct.uv_stream_s, ptr %8, i32 0, i32 13
  %10 = getelementptr inbounds nuw %struct.uv__io_s, ptr %9, i32 0, i32 5
  %11 = load i32, ptr %10, align 8
  %12 = icmp slt i32 %11, 0
  br i1 %12, label %13, label %14

13:                                               ; preds = %3
  store i32 -9, ptr %4, align 4
  br label %42

14:                                               ; preds = %3
  %15 = load ptr, ptr %5, align 8
  %16 = getelementptr inbounds nuw %struct.uv_stream_s, ptr %15, i32 0, i32 7
  %17 = load i32, ptr %16, align 8
  %18 = and i32 %17, 32768
  %19 = icmp ne i32 %18, 0
  br i1 %19, label %21, label %20

20:                                               ; preds = %14
  store i32 -32, ptr %4, align 4
  br label %42

21:                                               ; preds = %14
  %22 = load ptr, ptr %7, align 8
  %23 = icmp ne ptr %22, null
  br i1 %23, label %24, label %41

24:                                               ; preds = %21
  %25 = load ptr, ptr %5, align 8
  %26 = getelementptr inbounds nuw %struct.uv_stream_s, ptr %25, i32 0, i32 2
  %27 = load i32, ptr %26, align 8
  %28 = icmp ne i32 %27, 7
  br i1 %28, label %34, label %29

29:                                               ; preds = %24
  %30 = load ptr, ptr %5, align 8
  %31 = getelementptr inbounds nuw %struct.uv_pipe_s, ptr %30, i32 0, i32 20
  %32 = load i32, ptr %31, align 8
  %33 = icmp ne i32 %32, 0
  br i1 %33, label %35, label %34

34:                                               ; preds = %29, %24
  store i32 -22, ptr %4, align 4
  br label %42

35:                                               ; preds = %29
  %36 = load ptr, ptr %7, align 8
  %37 = call i32 @uv__handle_fd(ptr noundef %36)
  %38 = icmp slt i32 %37, 0
  br i1 %38, label %39, label %40

39:                                               ; preds = %35
  store i32 -9, ptr %4, align 4
  br label %42

40:                                               ; preds = %35
  br label %41

41:                                               ; preds = %40, %21
  store i32 0, ptr %4, align 4
  br label %42

42:                                               ; preds = %41, %39, %34, %20, %13
  %43 = load i32, ptr %4, align 4
  ret i32 %43
}

; Function Attrs: nounwind uwtable
define dso_local i32 @uv_try_write2(ptr noundef %0, ptr noundef %1, i32 noundef %2, ptr noundef %3) #0 {
  %5 = alloca i32, align 4
  %6 = alloca ptr, align 8
  %7 = alloca ptr, align 8
  %8 = alloca i32, align 4
  %9 = alloca ptr, align 8
  %10 = alloca i32, align 4
  %11 = alloca i32, align 4
  store ptr %0, ptr %6, align 8
  store ptr %1, ptr %7, align 8
  store i32 %2, ptr %8, align 4
  store ptr %3, ptr %9, align 8
  call void @llvm.lifetime.start.p0(i64 4, ptr %10) #8
  %12 = load ptr, ptr %6, align 8
  %13 = getelementptr inbounds nuw %struct.uv_stream_s, ptr %12, i32 0, i32 11
  %14 = load ptr, ptr %13, align 8
  %15 = icmp ne ptr %14, null
  br i1 %15, label %21, label %16

16:                                               ; preds = %4
  %17 = load ptr, ptr %6, align 8
  %18 = getelementptr inbounds nuw %struct.uv_stream_s, ptr %17, i32 0, i32 8
  %19 = load i64, ptr %18, align 8
  %20 = icmp ne i64 %19, 0
  br i1 %20, label %21, label %22

21:                                               ; preds = %16, %4
  store i32 -11, ptr %5, align 4
  store i32 1, ptr %11, align 4
  br label %36

22:                                               ; preds = %16
  %23 = load ptr, ptr %6, align 8
  %24 = load i32, ptr %8, align 4
  %25 = call i32 @uv__check_before_write(ptr noundef %23, i32 noundef %24, ptr noundef null)
  store i32 %25, ptr %10, align 4
  %26 = load i32, ptr %10, align 4
  %27 = icmp slt i32 %26, 0
  br i1 %27, label %28, label %30

28:                                               ; preds = %22
  %29 = load i32, ptr %10, align 4
  store i32 %29, ptr %5, align 4
  store i32 1, ptr %11, align 4
  br label %36

30:                                               ; preds = %22
  %31 = load ptr, ptr %6, align 8
  %32 = load ptr, ptr %7, align 8
  %33 = load i32, ptr %8, align 4
  %34 = load ptr, ptr %9, align 8
  %35 = call i32 @uv__try_write(ptr noundef %31, ptr noundef %32, i32 noundef %33, ptr noundef %34)
  store i32 %35, ptr %5, align 4
  store i32 1, ptr %11, align 4
  br label %36

36:                                               ; preds = %30, %28, %21
  call void @llvm.lifetime.end.p0(i64 4, ptr %10) #8
  %37 = load i32, ptr %5, align 4
  ret i32 %37
}